target datalayout = "e-m:e-p270:32:32-p271:32:32-p272:64:64-i64:64-i128:128-f80:128-n8:16:32:64-S128"
target triple = "x86_64-pc-linux-gnu"

%"class.gmx::TrajectoryAnalysisRunnerCommon::Impl" = type { %"class.gmx::ITopologyProvider", ptr, %"class.gmx::TopologyInformation", %"class.std::__cxx11::basic_string", %"class.std::__cxx11::basic_string", %"class.gmx::Selection", double, double, double, i8, i8, i8, i8, ptr, ptr, ptr, ptr }
%"class.gmx::ITopologyProvider" = type { ptr }
%"class.gmx::TopologyInformation" = type { %"class.std::unique_ptr", i8, %"class.std::unique_ptr.2", %"class.std::unique_ptr.10", i8, %"class.std::vector", %"class.std::vector", [3 x [3 x float]], i32 }
%"class.std::unique_ptr" = type { %"struct.std::__uniq_ptr_data" }
%"struct.std::__uniq_ptr_data" = type { %"class.std::__uniq_ptr_impl" }
%"class.std::__uniq_ptr_impl" = type { %"class.std::tuple" }
%"class.std::tuple" = type { %"struct.std::_Tuple_impl" }
%"struct.std::_Tuple_impl" = type { %"struct.std::_Head_base.1" }
%"struct.std::_Head_base.1" = type { ptr }
%"class.std::unique_ptr.2" = type { %"struct.std::__uniq_ptr_data.3" }
%"struct.std::__uniq_ptr_data.3" = type { %"class.std::__uniq_ptr_impl.4" }
%"class.std::__uniq_ptr_impl.4" = type { %"class.std::tuple.5" }
%"class.std::tuple.5" = type { %"struct.std::_Tuple_impl.6" }
%"struct.std::_Tuple_impl.6" = type { %"struct.std::_Head_base.9" }
%"struct.std::_Head_base.9" = type { ptr }
%"class.std::unique_ptr.10" = type { %"struct.std::__uniq_ptr_data.11" }
%"struct.std::__uniq_ptr_data.11" = type { %"class.std::__uniq_ptr_impl.12" }
%"class.std::__uniq_ptr_impl.12" = type { %"class.std::tuple.13" }
%"class.std::tuple.13" = type { %"struct.std::_Tuple_impl.14" }
%"struct.std::_Tuple_impl.14" = type { %"struct.std::_Head_base.17" }
%"struct.std::_Head_base.17" = type { ptr }
%"class.std::vector" = type { %"struct.std::_Vector_base" }
%"struct.std::_Vector_base" = type { %"struct.std::_Vector_base<gmx::BasicVector<float>, std::allocator<gmx::BasicVector<float>>>::_Vector_impl" }
%"struct.std::_Vector_base<gmx::BasicVector<float>, std::allocator<gmx::BasicVector<float>>>::_Vector_impl" = type { %"struct.std::_Vector_base<gmx::BasicVector<float>, std::allocator<gmx::BasicVector<float>>>::_Vector_impl_data" }
%"struct.std::_Vector_base<gmx::BasicVector<float>, std::allocator<gmx::BasicVector<float>>>::_Vector_impl_data" = type { ptr, ptr, ptr }
%"class.std::__cxx11::basic_string" = type { %"struct.std::__cxx11::basic_string<char>::_Alloc_hider", i64, %union.anon }
%"struct.std::__cxx11::basic_string<char>::_Alloc_hider" = type { ptr }
%union.anon = type { i64, [8 x i8] }
%"class.gmx::Selection" = type { ptr }

; Function Attrs: mustprogress uwtable
define void @_ZN3gmx30TrajectoryAnalysisRunnerCommon4Impl16finishTrajectoryEv(ptr noundef nonnull align 8 dereferenceable(280) %0) #0 align 2 {
  %2 = alloca ptr, align 8
  store ptr %0, ptr %2, align 8
  %3 = load ptr, ptr %2, align 8
  %4 = getelementptr inbounds %"class.gmx::TrajectoryAnalysisRunnerCommon::Impl", ptr %3, i32 0, i32 12
  %5 = load i8, ptr %4, align 1
  %6 = trunc i8 %5 to i1
  br i1 %6, label %7, label %11

7:                                                ; preds = %1
  %8 = getelementptr inbounds %"class.gmx::TrajectoryAnalysisRunnerCommon::Impl", ptr %3, i32 0, i32 15
  %9 = load ptr, ptr %8, align 8
  call void @_Z9close_trxP11t_trxstatus(ptr noundef %9)
  %10 = getelementptr inbounds %"class.gmx::TrajectoryAnalysisRunnerCommon::Impl", ptr %3, i32 0, i32 12
  store i8 0, ptr %10, align 1
  br label %11

11:                                               ; preds = %7, %1
  %12 = getelementptr inbounds %"class.gmx::TrajectoryAnalysisRunnerCommon::Impl", ptr %3, i32 0, i32 14
  %13 = load ptr, ptr %12, align 8
  %14 = icmp ne ptr %13, null
  br i1 %14, label %15, label %19

15:                                               ; preds = %11
  %16 = getelementptr inbounds %"class.gmx::TrajectoryAnalysisRunnerCommon::Impl", ptr %3, i32 0, i32 14
  %17 = load ptr, ptr %16, align 8
  call void @_Z14gmx_rmpbc_doneP9gmx_rmpbc(ptr noundef %17)
  %18 = getelementptr inbounds %"class.gmx::TrajectoryAnalysisRunnerCommon::Impl", ptr %3, i32 0, i32 14
  store ptr null, ptr %18, align 8
  br label %19

19:                                               ; preds = %15, %11
  ret void
}