; Function Attrs: mustprogress uwtable
define void @_ZN3gmx30TrajectoryAnalysisRunnerCommon4Impl16finishTrajectoryEv(ptr nocapture noundef nonnull align 8 dereferenceable(280) %0) local_unnamed_addr #0 align 2 {
  %2 = getelementptr inbounds i8, ptr %0, i64 243
  %3 = load i8, ptr %2, align 1
  %4 = trunc i8 %3 to i1
  br i1 %4, label %5, label %8

5:                                                ; preds = %1
  %6 = getelementptr inbounds i8, ptr %0, i64 264
  %7 = load ptr, ptr %6, align 8
  tail call void @_Z9close_trxP11t_trxstatus(ptr noundef %7)
  store i8 0, ptr %2, align 1
  br label %8

8:                                                ; preds = %5, %1
  %9 = getelementptr inbounds i8, ptr %0, i64 256
  %10 = load ptr, ptr %9, align 8
  %.not = icmp eq ptr %10, null
  br i1 %.not, label %12, label %11

11:                                               ; preds = %8
  tail call void @_Z14gmx_rmpbc_doneP9gmx_rmpbc(ptr noundef nonnull %10)
  store ptr null, ptr %9, align 8
  br label %12

12:                                               ; preds = %11, %8
  ret void
}